; ModuleID = '9/215.c'
source_filename = "9/215.c"
target datalayout = "e-m:e-p270:32:32-p271:32:32-p272:64:64-i64:64-f80:128-n8:16:32:64-S128"
target triple = "x86_64-pc-linux-gnu"

%struct.student = type { i32, [20 x i8], %struct.student* }

@.str = private unnamed_addr constant [5 x i8] c"%s%d\00", align 1
@n = common dso_local global i32 0, align 4
@.str.1 = private unnamed_addr constant [3 x i8] c"%d\00", align 1
@.str.2 = private unnamed_addr constant [4 x i8] c"%s\0A\00", align 1

; Function Attrs: noinline nounwind uwtable
define dso_local %struct.student* @creat() #0 {
  %1 = alloca %struct.student*, align 8
  %2 = alloca %struct.student*, align 8
  %3 = alloca %struct.student*, align 8
  %4 = alloca %struct.student*, align 8
  %5 = alloca %struct.student*, align 8
  %6 = alloca %struct.student*, align 8
  %7 = alloca i32, align 4
  %8 = alloca i32, align 4
  %9 = call noalias i8* @malloc(i64 100) #3
  %10 = bitcast i8* %9 to %struct.student*
  store %struct.student* %10, %struct.student** %3, align 8
  %11 = load %struct.student*, %struct.student** %3, align 8
  %12 = getelementptr inbounds %struct.student, %struct.student* %11, i32 0, i32 1
  %13 = getelementptr inbounds [20 x i8], [20 x i8]* %12, i64 0, i64 0
  %14 = load %struct.student*, %struct.student** %3, align 8
  %15 = getelementptr inbounds %struct.student, %struct.student* %14, i32 0, i32 0
  %16 = call i32 (i8*, ...) @__isoc99_scanf(i8* getelementptr inbounds ([5 x i8], [5 x i8]* @.str, i64 0, i64 0), i8* %13, i32* %15)
  %17 = call noalias i8* @malloc(i64 100) #3
  %18 = bitcast i8* %17 to %struct.student*
  store %struct.student* %18, %struct.student** %1, align 8
  %19 = load %struct.student*, %struct.student** %3, align 8
  %20 = load %struct.student*, %struct.student** %1, align 8
  %21 = getelementptr inbounds %struct.student, %struct.student* %20, i32 0, i32 2
  store %struct.student* %19, %struct.student** %21, align 8
  %22 = load %struct.student*, %struct.student** %1, align 8
  store %struct.student* %22, %struct.student** %4, align 8
  %23 = load %struct.student*, %struct.student** %3, align 8
  %24 = getelementptr inbounds %struct.student, %struct.student* %23, i32 0, i32 2
  store %struct.student* null, %struct.student** %24, align 8
  %25 = call noalias i8* @malloc(i64 100) #3
  %26 = bitcast i8* %25 to %struct.student*
  store %struct.student* %26, %struct.student** %2, align 8
  %27 = load %struct.student*, %struct.student** %2, align 8
  store %struct.student* %27, %struct.student** %6, align 8
  %28 = load %struct.student*, %struct.student** %6, align 8
  %29 = getelementptr inbounds %struct.student, %struct.student* %28, i32 0, i32 2
  store %struct.student* null, %struct.student** %29, align 8
  store i32 0, i32* %8, align 4
  store i32 0, i32* %7, align 4
  br label %30

30:                                               ; preds = %99, %0
  %31 = load i32, i32* %7, align 4
  %32 = load i32, i32* @n, align 4
  %33 = sub nsw i32 %32, 1
  %34 = icmp slt i32 %31, %33
  br i1 %34, label %35, label %102

35:                                               ; preds = %30
  store i32 0, i32* %8, align 4
  %36 = call noalias i8* @malloc(i64 100) #3
  %37 = bitcast i8* %36 to %struct.student*
  store %struct.student* %37, %struct.student** %5, align 8
  %38 = load %struct.student*, %struct.student** %5, align 8
  %39 = getelementptr inbounds %struct.student, %struct.student* %38, i32 0, i32 1
  %40 = getelementptr inbounds [20 x i8], [20 x i8]* %39, i64 0, i64 0
  %41 = load %struct.student*, %struct.student** %5, align 8
  %42 = getelementptr inbounds %struct.student, %struct.student* %41, i32 0, i32 0
  %43 = call i32 (i8*, ...) @__isoc99_scanf(i8* getelementptr inbounds ([5 x i8], [5 x i8]* @.str, i64 0, i64 0), i8* %40, i32* %42)
  %44 = load %struct.student*, %struct.student** %5, align 8
  %45 = getelementptr inbounds %struct.student, %struct.student* %44, i32 0, i32 0
  %46 = load i32, i32* %45, align 8
  %47 = icmp sge i32 %46, 60
  br i1 %47, label %48, label %86

48:                                               ; preds = %35
  %49 = load %struct.student*, %struct.student** %1, align 8
  store %struct.student* %49, %struct.student** %4, align 8
  %50 = load %struct.student*, %struct.student** %1, align 8
  %51 = getelementptr inbounds %struct.student, %struct.student* %50, i32 0, i32 2
  %52 = load %struct.student*, %struct.student** %51, align 8
  store %struct.student* %52, %struct.student** %3, align 8
  br label %53

53:                                               ; preds = %71, %48
  %54 = load %struct.student*, %struct.student** %3, align 8
  %55 = icmp ne %struct.student* %54, null
  br i1 %55, label %56, label %76

56:                                               ; preds = %53
  %57 = load %struct.student*, %struct.student** %5, align 8
  %58 = getelementptr inbounds %struct.student, %struct.student* %57, i32 0, i32 0
  %59 = load i32, i32* %58, align 8
  %60 = load %struct.student*, %struct.student** %3, align 8
  %61 = getelementptr inbounds %struct.student, %struct.student* %60, i32 0, i32 0
  %62 = load i32, i32* %61, align 8
  %63 = icmp sgt i32 %59, %62
  br i1 %63, label %64, label %71

64:                                               ; preds = %56
  %65 = load %struct.student*, %struct.student** %3, align 8
  %66 = load %struct.student*, %struct.student** %5, align 8
  %67 = getelementptr inbounds %struct.student, %struct.student* %66, i32 0, i32 2
  store %struct.student* %65, %struct.student** %67, align 8
  %68 = load %struct.student*, %struct.student** %5, align 8
  %69 = load %struct.student*, %struct.student** %4, align 8
  %70 = getelementptr inbounds %struct.student, %struct.student* %69, i32 0, i32 2
  store %struct.student* %68, %struct.student** %70, align 8
  store i32 1, i32* %8, align 4
  br label %76

71:                                               ; preds = %56
  %72 = load %struct.student*, %struct.student** %3, align 8
  store %struct.student* %72, %struct.student** %4, align 8
  %73 = load %struct.student*, %struct.student** %3, align 8
  %74 = getelementptr inbounds %struct.student, %struct.student* %73, i32 0, i32 2
  %75 = load %struct.student*, %struct.student** %74, align 8
  store %struct.student* %75, %struct.student** %3, align 8
  br label %53

76:                                               ; preds = %64, %53
  %77 = load i32, i32* %8, align 4
  %78 = icmp eq i32 %77, 0
  br i1 %78, label %79, label %85

79:                                               ; preds = %76
  %80 = load %struct.student*, %struct.student** %5, align 8
  %81 = load %struct.student*, %struct.student** %4, align 8
  %82 = getelementptr inbounds %struct.student, %struct.student* %81, i32 0, i32 2
  store %struct.student* %80, %struct.student** %82, align 8
  %83 = load %struct.student*, %struct.student** %5, align 8
  %84 = getelementptr inbounds %struct.student, %struct.student* %83, i32 0, i32 2
  store %struct.student* null, %struct.student** %84, align 8
  br label %85

85:                                               ; preds = %79, %76
  br label %86

86:                                               ; preds = %85, %35
  %87 = load %struct.student*, %struct.student** %5, align 8
  %88 = getelementptr inbounds %struct.student, %struct.student* %87, i32 0, i32 0
  %89 = load i32, i32* %88, align 8
  %90 = icmp slt i32 %89, 60
  br i1 %90, label %91, label %98

91:                                               ; preds = %86
  %92 = load %struct.student*, %struct.student** %5, align 8
  %93 = load %struct.student*, %struct.student** %6, align 8
  %94 = getelementptr inbounds %struct.student, %struct.student* %93, i32 0, i32 2
  store %struct.student* %92, %struct.student** %94, align 8
  %95 = load %struct.student*, %struct.student** %5, align 8
  store %struct.student* %95, %struct.student** %6, align 8
  %96 = load %struct.student*, %struct.student** %6, align 8
  %97 = getelementptr inbounds %struct.student, %struct.student* %96, i32 0, i32 2
  store %struct.student* null, %struct.student** %97, align 8
  br label %98

98:                                               ; preds = %91, %86
  br label %99

99:                                               ; preds = %98
  %100 = load i32, i32* %7, align 4
  %101 = add nsw i32 %100, 1
  store i32 %101, i32* %7, align 4
  br label %30

102:                                              ; preds = %30
  %103 = load %struct.student*, %struct.student** %1, align 8
  store %struct.student* %103, %struct.student** %3, align 8
  br label %104

104:                                              ; preds = %109, %102
  %105 = load %struct.student*, %struct.student** %3, align 8
  %106 = getelementptr inbounds %struct.student, %struct.student* %105, i32 0, i32 2
  %107 = load %struct.student*, %struct.student** %106, align 8
  %108 = icmp ne %struct.student* %107, null
  br i1 %108, label %109, label %113

109:                                              ; preds = %104
  %110 = load %struct.student*, %struct.student** %3, align 8
  %111 = getelementptr inbounds %struct.student, %struct.student* %110, i32 0, i32 2
  %112 = load %struct.student*, %struct.student** %111, align 8
  store %struct.student* %112, %struct.student** %3, align 8
  br label %104

113:                                              ; preds = %104
  %114 = load %struct.student*, %struct.student** %2, align 8
  %115 = getelementptr inbounds %struct.student, %struct.student* %114, i32 0, i32 2
  %116 = load %struct.student*, %struct.student** %115, align 8
  %117 = load %struct.student*, %struct.student** %3, align 8
  %118 = getelementptr inbounds %struct.student, %struct.student* %117, i32 0, i32 2
  store %struct.student* %116, %struct.student** %118, align 8
  %119 = load %struct.student*, %struct.student** %1, align 8
  ret %struct.student* %119
}

; Function Attrs: nounwind
declare dso_local noalias i8* @malloc(i64) #1

declare dso_local i32 @__isoc99_scanf(i8*, ...) #2

; Function Attrs: noinline nounwind uwtable
define dso_local void @main() #0 {
  %1 = alloca %struct.student*, align 8
  %2 = alloca %struct.student*, align 8
  %3 = call i32 (i8*, ...) @__isoc99_scanf(i8* getelementptr inbounds ([3 x i8], [3 x i8]* @.str.1, i64 0, i64 0), i32* @n)
  %4 = call %struct.student* @creat()
  store %struct.student* %4, %struct.student** %1, align 8
  %5 = load %struct.student*, %struct.student** %1, align 8
  %6 = getelementptr inbounds %struct.student, %struct.student* %5, i32 0, i32 2
  %7 = load %struct.student*, %struct.student** %6, align 8
  store %struct.student* %7, %struct.student** %2, align 8
  br label %8

8:                                                ; preds = %11, %0
  %9 = load %struct.student*, %struct.student** %2, align 8
  %10 = icmp ne %struct.student* %9, null
  br i1 %10, label %11, label %19

11:                                               ; preds = %8
  %12 = load %struct.student*, %struct.student** %2, align 8
  %13 = getelementptr inbounds %struct.student, %struct.student* %12, i32 0, i32 1
  %14 = getelementptr inbounds [20 x i8], [20 x i8]* %13, i64 0, i64 0
  %15 = call i32 (i8*, ...) @printf(i8* getelementptr inbounds ([4 x i8], [4 x i8]* @.str.2, i64 0, i64 0), i8* %14)
  %16 = load %struct.student*, %struct.student** %2, align 8
  %17 = getelementptr inbounds %struct.student, %struct.student* %16, i32 0, i32 2
  %18 = load %struct.student*, %struct.student** %17, align 8
  store %struct.student* %18, %struct.student** %2, align 8
  br label %8

19:                                               ; preds = %8
  ret void
}

declare dso_local i32 @printf(i8*, ...) #2


!llvm.module.flags = !{!0}
!llvm.ident = !{!1}

!0 = !{i32 1, !"wchar_size", i32 4}
!1 = !{!"clang version 10.0.0-4ubuntu1 "}
